; Function Attrs: nounwind uwtable
define hidden ptr @mi__expand(ptr noundef %0, i64 noundef %1) local_unnamed_addr #0 {
  %3 = tail call ptr @mi_expand(ptr noundef %0, i64 noundef %1) #8
  %4 = icmp eq ptr %3, null
  br i1 %4, label %5, label %7

5:                                                ; preds = %2
  %6 = tail call ptr @__errno_location() #9
  store i32 12, ptr %6, align 4, !tbaa !8
  br label %7

7:                                                ; preds = %5, %2
  ret ptr %3
}